; Function Attrs: mustprogress uwtable
define void @_ZNK6casadi13CodeGenerator7sz_workERmS1_S1_S1_(ptr nocapture noundef nonnull readonly align 8 dereferenceable(3097) %0, ptr nocapture noundef nonnull align 8 dereferenceable(8) %1, ptr nocapture noundef nonnull align 8 dereferenceable(8) %2, ptr nocapture noundef nonnull align 8 dereferenceable(8) %3, ptr nocapture noundef nonnull align 8 dereferenceable(8) %4) local_unnamed_addr #3 align 2 {
  store i64 0, ptr %4, align 8
  store i64 0, ptr %3, align 8
  store i64 0, ptr %2, align 8
  store i64 0, ptr %1, align 8
  %6 = getelementptr inbounds i8, ptr %0, i64 2952
  %7 = load ptr, ptr %6, align 8
  %8 = getelementptr inbounds i8, ptr %0, i64 2960
  %9 = load ptr, ptr %8, align 8
  %.not38 = icmp eq ptr %7, %9
  br i1 %.not38, label %._crit_edge, label %.lr.ph

.lr.ph:                                           ; preds = %5, %.lr.ph
  %.sroa.035.039 = phi ptr [ %18, %.lr.ph ], [ %7, %5 ]
  %10 = tail call noundef i64 @_ZNK6casadi8Function6sz_argEv(ptr noundef nonnull align 8 dereferenceable(8) %.sroa.035.039)
  %11 = load i64, ptr %1, align 8
  %.sroa.speculated32 = tail call i64 @llvm.umax.i64(i64 %11, i64 %10)
  store i64 %.sroa.speculated32, ptr %1, align 8
  %12 = tail call noundef i64 @_ZNK6casadi8Function6sz_resEv(ptr noundef nonnull align 8 dereferenceable(8) %.sroa.035.039)
  %13 = load i64, ptr %2, align 8
  %.sroa.speculated28 = tail call i64 @llvm.umax.i64(i64 %13, i64 %12)
  store i64 %.sroa.speculated28, ptr %2, align 8
  %14 = tail call noundef i64 @_ZNK6casadi8Function5sz_iwEv(ptr noundef nonnull align 8 dereferenceable(8) %.sroa.035.039)
  %15 = load i64, ptr %3, align 8
  %.sroa.speculated24 = tail call i64 @llvm.umax.i64(i64 %15, i64 %14)
  store i64 %.sroa.speculated24, ptr %3, align 8
  %16 = tail call noundef i64 @_ZNK6casadi8Function4sz_wEv(ptr noundef nonnull align 8 dereferenceable(8) %.sroa.035.039)
  %17 = load i64, ptr %4, align 8
  %.sroa.speculated = tail call i64 @llvm.umax.i64(i64 %17, i64 %16)
  store i64 %.sroa.speculated, ptr %4, align 8
  %18 = getelementptr inbounds i8, ptr %.sroa.035.039, i64 40
  %.not = icmp eq ptr %18, %9
  br i1 %.not, label %._crit_edge, label %.lr.ph

._crit_edge:                                      ; preds = %.lr.ph, %5
  ret void
}